; Function Attrs: nounwind uwtable
define dso_local void @uv_os_free_group(ptr noundef captures(address_is_null) %0) local_unnamed_addr #0 {
  %2 = icmp eq ptr %0, null
  br i1 %2, label %9, label %3

3:                                                ; preds = %1
  %4 = getelementptr inbounds nuw i8, ptr %0, i64 16
  %5 = load ptr, ptr %4, align 8
  %6 = tail call ptr @__errno_location() #27
  %7 = load i32, ptr %6, align 4
  %8 = load ptr, ptr @uv__allocator.3, align 8
  tail call void %8(ptr noundef %5) #26
  store i32 %7, ptr %6, align 4
  store ptr null, ptr %4, align 8
  store ptr null, ptr %0, align 8
  br label %9

9:                                                ; preds = %1, %3
  ret void
}